target datalayout = "e-m:e-p270:32:32-p271:32:32-p272:64:64-i64:64-i128:128-f80:128-n8:16:32:64-S128"
target triple = "x86_64-pc-linux-gnu"

%struct.timeval = type { i64, i64 }
%struct.tm = type { i32, i32, i32, i32, i32, i32, i32, i32, i32, i64, ptr }

@php_cli_server_log_level = internal global i32 3, align 4
@stderr = external global ptr, align 8
@.str.105 = private unnamed_addr constant [31 x i8] c"unknown time, can't be fetched\00", align 1
@.str.106 = private unnamed_addr constant [8 x i8] c"unknown\00", align 1
@php_cli_server_workers_max = internal global i64 0, align 8
@.str.107 = private unnamed_addr constant [15 x i8] c"[%ld] [%s] %s\0A\00", align 1
@.str.108 = private unnamed_addr constant [9 x i8] c"[%s] %s\0A\00", align 1

; Function Attrs: nounwind uwtable
define internal zeroext i1 @php_cli_server_get_system_time(ptr noundef %0) #0 {
  %2 = alloca i1, align 1
  %3 = alloca ptr, align 8
  %4 = alloca %struct.timeval, align 8
  %5 = alloca %struct.tm, align 8
  %6 = alloca i32, align 4
  store ptr %0, ptr %3, align 8, !tbaa !67
  call void @llvm.lifetime.start.p0(i64 16, ptr %4) #20
  call void @llvm.lifetime.start.p0(i64 56, ptr %5) #20
  %7 = call i32 @gettimeofday(ptr noundef %4, ptr noundef null) #20
  %8 = getelementptr inbounds nuw %struct.timeval, ptr %4, i32 0, i32 0
  %9 = call ptr @localtime_r(ptr noundef %8, ptr noundef %5) #20
  %10 = icmp ne ptr %9, null
  br i1 %10, label %12, label %11

11:                                               ; preds = %1
  store i1 false, ptr %2, align 1
  store i32 1, ptr %6, align 4
  br label %16

12:                                               ; preds = %1
  %13 = load ptr, ptr %3, align 8, !tbaa !67
  %14 = call ptr @asctime_r(ptr noundef %5, ptr noundef %13) #20
  %15 = icmp ne ptr %14, null
  store i1 %15, ptr %2, align 1
  store i32 1, ptr %6, align 4
  br label %16

16:                                               ; preds = %12, %11
  call void @llvm.lifetime.end.p0(i64 56, ptr %5) #20
  call void @llvm.lifetime.end.p0(i64 16, ptr %4) #20
  %17 = load i1, ptr %2, align 1
  ret i1 %17
}

; Function Attrs: nounwind uwtable
define internal void @sapi_cli_server_log_write(i32 noundef %0, ptr noundef %1) #0 {
  %3 = alloca i32, align 4
  %4 = alloca ptr, align 8
  %5 = alloca [52 x i8], align 16
  %6 = alloca i32, align 4
  %7 = alloca i64, align 8
  store i32 %0, ptr %3, align 4, !tbaa !117
  store ptr %1, ptr %4, align 8, !tbaa !67
  call void @llvm.lifetime.start.p0(i64 52, ptr %5) #20
  %8 = load i32, ptr @php_cli_server_log_level, align 4, !tbaa !117
  %9 = load i32, ptr %3, align 4, !tbaa !117
  %10 = icmp slt i32 %8, %9
  br i1 %10, label %11, label %12

11:                                               ; preds = %2
  store i32 1, ptr %6, align 4
  br label %45

12:                                               ; preds = %2
  %13 = getelementptr inbounds [52 x i8], ptr %5, i64 0, i64 0
  %14 = call zeroext i1 @php_cli_server_get_system_time(ptr noundef %13)
  br i1 %14, label %17, label %15

15:                                               ; preds = %12
  %16 = getelementptr inbounds [52 x i8], ptr %5, i64 0, i64 0
  call void @llvm.memmove.p0.p0.i64(ptr align 16 %16, ptr align 1 @.str.105, i64 31, i1 false)
  br label %29

17:                                               ; preds = %12
  call void @llvm.lifetime.start.p0(i64 8, ptr %7) #20
  %18 = getelementptr inbounds [52 x i8], ptr %5, i64 0, i64 0
  %19 = call i64 @strlen(ptr noundef %18) #21
  store i64 %19, ptr %7, align 8, !tbaa !68
  %20 = load i64, ptr %7, align 8, !tbaa !68
  %21 = icmp ugt i64 %20, 0
  br i1 %21, label %22, label %26

22:                                               ; preds = %17
  %23 = load i64, ptr %7, align 8, !tbaa !68
  %24 = sub i64 %23, 1
  %25 = getelementptr inbounds nuw [52 x i8], ptr %5, i64 0, i64 %24
  store i8 0, ptr %25, align 1, !tbaa !11
  br label %28

26:                                               ; preds = %17
  %27 = getelementptr inbounds [52 x i8], ptr %5, i64 0, i64 0
  call void @llvm.memmove.p0.p0.i64(ptr align 16 %27, ptr align 1 @.str.106, i64 8, i1 false)
  br label %28

28:                                               ; preds = %26, %22
  call void @llvm.lifetime.end.p0(i64 8, ptr %7) #20
  br label %29

29:                                               ; preds = %28, %15
  %30 = load i64, ptr @php_cli_server_workers_max, align 8, !tbaa !68
  %31 = icmp sgt i64 %30, 1
  br i1 %31, label %32, label %39

32:                                               ; preds = %29
  %33 = load ptr, ptr @stderr, align 8, !tbaa !119
  %34 = call i32 @getpid() #20
  %35 = sext i32 %34 to i64
  %36 = getelementptr inbounds [52 x i8], ptr %5, i64 0, i64 0
  %37 = load ptr, ptr %4, align 8, !tbaa !67
  %38 = call i32 (ptr, ptr, ...) @fprintf(ptr noundef %33, ptr noundef @.str.107, i64 noundef %35, ptr noundef %36, ptr noundef %37) #20
  br label %44

39:                                               ; preds = %29
  %40 = load ptr, ptr @stderr, align 8, !tbaa !119
  %41 = getelementptr inbounds [52 x i8], ptr %5, i64 0, i64 0
  %42 = load ptr, ptr %4, align 8, !tbaa !67
  %43 = call i32 (ptr, ptr, ...) @fprintf(ptr noundef %40, ptr noundef @.str.108, ptr noundef %41, ptr noundef %42) #20
  br label %44

44:                                               ; preds = %39, %32
  store i32 0, ptr %6, align 4
  br label %45

45:                                               ; preds = %44, %11
  call void @llvm.lifetime.end.p0(i64 52, ptr %5) #20
  %46 = load i32, ptr %6, align 4
  switch i32 %46, label %48 [
    i32 0, label %47
    i32 1, label %47
  ]

47:                                               ; preds = %45, %45
  ret void

48:                                               ; preds = %45
  unreachable
}