; Function Attrs: nounwind uwtable
define internal fastcc void @sapi_cli_server_log_write(i32 noundef range(i32 1, 4) %0, ptr noundef %1) unnamed_addr #0 {
  %3 = alloca %struct.timeval, align 8
  %4 = alloca %struct.tm, align 8
  %5 = alloca [52 x i8], align 16
  call void @llvm.lifetime.start.p0(i64 52, ptr nonnull %5) #29
  %6 = load i32, ptr @php_cli_server_log_level, align 4, !tbaa !74
  %7 = icmp slt i32 %6, %0
  br i1 %7, label %29, label %8

8:                                                ; preds = %2
  call void @llvm.lifetime.start.p0(i64 16, ptr nonnull %3) #29
  call void @llvm.lifetime.start.p0(i64 56, ptr nonnull %4) #29
  %9 = call i32 @gettimeofday(ptr noundef nonnull %3, ptr noundef null) #29
  %10 = call ptr @localtime_r(ptr noundef nonnull %3, ptr noundef nonnull %4) #29
  %.not.i = icmp eq ptr %10, null
  br i1 %.not.i, label %php_cli_server_get_system_time.exit.thread, label %php_cli_server_get_system_time.exit

php_cli_server_get_system_time.exit.thread:       ; preds = %8
  call void @llvm.lifetime.end.p0(i64 56, ptr nonnull %4) #29
  call void @llvm.lifetime.end.p0(i64 16, ptr nonnull %3) #29
  br label %12

php_cli_server_get_system_time.exit:              ; preds = %8
  %11 = call ptr @asctime_r(ptr noundef nonnull %4, ptr noundef nonnull %5) #29
  %.not5 = icmp eq ptr %11, null
  call void @llvm.lifetime.end.p0(i64 56, ptr nonnull %4) #29
  call void @llvm.lifetime.end.p0(i64 16, ptr nonnull %3) #29
  br i1 %.not5, label %12, label %13

12:                                               ; preds = %php_cli_server_get_system_time.exit.thread, %php_cli_server_get_system_time.exit
  call void @llvm.memcpy.p0.p0.i64(ptr noundef nonnull align 16 dereferenceable(31) %5, ptr noundef nonnull align 1 dereferenceable(31) @.str.105, i64 31, i1 false)
  br label %19

13:                                               ; preds = %php_cli_server_get_system_time.exit
  %14 = call i64 @strlen(ptr noundef nonnull dereferenceable(1) %5) #30
  %.not = icmp eq i64 %14, 0
  br i1 %.not, label %18, label %15

15:                                               ; preds = %13
  %16 = add i64 %14, -1
  %17 = getelementptr inbounds nuw [52 x i8], ptr %5, i64 0, i64 %16
  store i8 0, ptr %17, align 1, !tbaa !4
  br label %19

18:                                               ; preds = %13
  store i64 31093567915781749, ptr %5, align 16
  br label %19

19:                                               ; preds = %15, %18, %12
  %20 = load i64, ptr @php_cli_server_workers_max, align 8, !tbaa !121
  %21 = icmp sgt i64 %20, 1
  %22 = load ptr, ptr @stderr, align 8, !tbaa !123
  br i1 %21, label %23, label %27

23:                                               ; preds = %19
  %24 = call i32 @getpid() #29
  %25 = sext i32 %24 to i64
  %26 = call i32 (ptr, ptr, ...) @fprintf(ptr noundef %22, ptr noundef nonnull @.str.107, i64 noundef %25, ptr noundef nonnull %5, ptr noundef %1) #33
  br label %29

27:                                               ; preds = %19
  %28 = call i32 (ptr, ptr, ...) @fprintf(ptr noundef %22, ptr noundef nonnull @.str.108, ptr noundef nonnull %5, ptr noundef %1) #33
  br label %29

29:                                               ; preds = %23, %27, %2
  call void @llvm.lifetime.end.p0(i64 52, ptr nonnull %5) #29
  ret void
}